	.file	"swap_c.c"
	.text
	.globl	swap_c
	.type	swap_c, @function
swap_c:
.LFB0:
	.cfi_startproc
	endbr64
	pushq	%rbp
	.cfi_def_cfa_offset 16
	.cfi_offset 6, -16
	movq	%rsp, %rbp
	.cfi_def_cfa_register 6
	movq	%rdi, -24(%rbp)
	movq	%rsi, -32(%rbp)
	movq	-24(%rbp), %rax
	movl	(%rax), %eax
	movl	%eax, -4(%rbp)
	movq	-32(%rbp), %rax
	movl	(%rax), %edx
	movq	-24(%rbp), %rax
	movl	%edx, (%rax)
	movq	-32(%rbp), %rax
	movl	-4(%rbp), %edx
	movl	%edx, (%rax)
	nop
	popq	%rbp
	.cfi_def_cfa 7, 8
	ret
	.cfi_endproc
.LFE0:
	.size	swap_c, .-swap_c
	.section	.rodata
.LC1:
	.string	"C: x=%d, y=%d, time=%f sec\n"
	.text
	.globl	main
	.type	main, @function
main:
.LFB1:
	.cfi_startproc
	endbr64
	pushq	%rbp
	.cfi_def_cfa_offset 16
	.cfi_offset 6, -16
	movq	%rsp, %rbp
	.cfi_def_cfa_register 6
	subq	$48, %rsp
	movq	%fs:40, %rax
	movq	%rax, -8(%rbp)
	xorl	%eax, %eax
	movl	$1, -40(%rbp)
	movl	$2, -36(%rbp)
	call	clock@PLT
	movq	%rax, -24(%rbp)
	movq	$0, -32(%rbp)
	jmp	.L3
.L4:
	leaq	-36(%rbp), %rdx
	leaq	-40(%rbp), %rax
	movq	%rdx, %rsi
	movq	%rax, %rdi
	call	swap_c
	addq	$1, -32(%rbp)
.L3:
	cmpq	$99999999, -32(%rbp)
	jle	.L4
	call	clock@PLT
	movq	%rax, -16(%rbp)
	movq	-16(%rbp), %rax
	subq	-24(%rbp), %rax
	pxor	%xmm0, %xmm0
	cvtsi2sdq	%rax, %xmm0
	movsd	.LC0(%rip), %xmm1
	divsd	%xmm1, %xmm0
	movq	%xmm0, %rcx
	movl	-36(%rbp), %edx
	movl	-40(%rbp), %eax
	movq	%rcx, %xmm0
	movl	%eax, %esi
	leaq	.LC1(%rip), %rax
	movq	%rax, %rdi
	movl	$1, %eax
	call	printf@PLT
	movl	$0, %eax
	movq	-8(%rbp), %rdx
	subq	%fs:40, %rdx
	je	.L6
	call	__stack_chk_fail@PLT
.L6:
	leave
	.cfi_def_cfa 7, 8
	ret
	.cfi_endproc
.LFE1:
	.size	main, .-main
	.section	.rodata
	.align 8
.LC0:
	.long	0
	.long	1093567616
	.ident	"GCC: (Ubuntu 14.2.0-19ubuntu2) 14.2.0"
	.section	.note.GNU-stack,"",@progbits
	.section	.note.gnu.property,"a"
	.align 8
	.long	1f - 0f
	.long	4f - 1f
	.long	5
0:
	.string	"GNU"
1:
	.align 8
	.long	0xc0000002
	.long	3f - 2f
2:
	.long	0x3
3:
	.align 8
4:
